target datalayout = "e-m:e-p270:32:32-p271:32:32-p272:64:64-i64:64-i128:128-f80:128-n8:16:32:64-S128"
target triple = "x86_64-pc-linux-gnu"

%struct.AVCodecContext = type { ptr, i32, i32, ptr, i32, i32, ptr, ptr, ptr, i64, i32, i32, ptr, i32, %struct.AVRational, %struct.AVRational, %struct.AVRational, i32, i32, i32, i32, i32, %struct.AVRational, i32, i32, i32, i32, i32, i32, i32, i32, i32, i32, i32, ptr, ptr, i32, float, float, float, float, float, float, float, float, float, i32, i32, i32, i32, i32, i32, i32, i32, i32, i32, i32, i32, ptr, ptr, ptr, i32, i32, i32, i32, i32, i32, i32, i32, i32, i32, %struct.AVChannelLayout, i32, i32, i32, i32, i32, i32, i32, i32, ptr, i32, i32, i32, float, float, i32, i32, i32, i32, i32, ptr, i64, i64, float, float, i32, i32, ptr, ptr, i32, i32, i32, i32, i32, ptr, ptr, ptr, ptr, i32, i32, [8 x i64], i32, i32, i32, i32, i32, i32, i32, ptr, ptr, i32, i32, i32, i32, i32, i32, i32, i32, i32, i32, ptr, ptr, i32, i32, ptr, ptr, ptr, ptr, i32, i32, i64, i32, i32, i64, ptr, i64, ptr, i32, ptr, i32 }
%struct.AVRational = type { i32, i32 }
%struct.AVChannelLayout = type { i32, i32, %union.anon, ptr }
%union.anon = type { i64 }
%struct.AVCodecInternal = type { i32, i32, i32, ptr, ptr, ptr, ptr, ptr, ptr, ptr, i32, ptr, ptr, ptr, i32, i32, ptr, i32, ptr, ptr, i32, i32 }
%struct.SliceThreadContext = type { ptr, ptr, ptr, ptr, ptr, ptr, i32 }

; Function Attrs: nounwind uwtable
define internal i32 @thread_execute(ptr noundef %0, ptr noundef %1, ptr noundef %2, ptr noundef %3, i32 noundef %4, i32 noundef %5) #3 {
  %7 = alloca i32, align 4
  %8 = alloca ptr, align 8
  %9 = alloca ptr, align 8
  %10 = alloca ptr, align 8
  %11 = alloca ptr, align 8
  %12 = alloca i32, align 4
  %13 = alloca i32, align 4
  %14 = alloca ptr, align 8
  %15 = alloca i32, align 4
  store ptr %0, ptr %8, align 8, !tbaa !4
  store ptr %1, ptr %9, align 8, !tbaa !38
  store ptr %2, ptr %10, align 8, !tbaa !38
  store ptr %3, ptr %11, align 8, !tbaa !39
  store i32 %4, ptr %12, align 4, !tbaa !40
  store i32 %5, ptr %13, align 4, !tbaa !40
  call void @llvm.lifetime.start.p0(i64 8, ptr %14) #5
  %16 = load ptr, ptr %8, align 8, !tbaa !4
  %17 = getelementptr inbounds nuw %struct.AVCodecContext, ptr %16, i32 0, i32 7
  %18 = load ptr, ptr %17, align 8, !tbaa !9
  %19 = getelementptr inbounds nuw %struct.AVCodecInternal, ptr %18, i32 0, i32 5
  %20 = load ptr, ptr %19, align 8, !tbaa !29
  store ptr %20, ptr %14, align 8, !tbaa !36
  %21 = load ptr, ptr %8, align 8, !tbaa !4
  %22 = getelementptr inbounds nuw %struct.AVCodecContext, ptr %21, i32 0, i32 118
  %23 = load i32, ptr %22, align 8, !tbaa !45
  %24 = and i32 %23, 2
  %25 = icmp ne i32 %24, 0
  br i1 %25, label %26, label %31

26:                                               ; preds = %6
  %27 = load ptr, ptr %8, align 8, !tbaa !4
  %28 = getelementptr inbounds nuw %struct.AVCodecContext, ptr %27, i32 0, i32 116
  %29 = load i32, ptr %28, align 8, !tbaa !46
  %30 = icmp sle i32 %29, 1
  br i1 %30, label %31, label %39

31:                                               ; preds = %26, %6
  %32 = load ptr, ptr %8, align 8, !tbaa !4
  %33 = load ptr, ptr %9, align 8, !tbaa !38
  %34 = load ptr, ptr %10, align 8, !tbaa !38
  %35 = load ptr, ptr %11, align 8, !tbaa !39
  %36 = load i32, ptr %12, align 4, !tbaa !40
  %37 = load i32, ptr %13, align 4, !tbaa !40
  %38 = call i32 @avcodec_default_execute(ptr noundef %32, ptr noundef %33, ptr noundef %34, ptr noundef %35, i32 noundef %36, i32 noundef %37)
  store i32 %38, ptr %7, align 4
  store i32 1, ptr %15, align 4
  br label %67

39:                                               ; preds = %26
  %40 = load i32, ptr %12, align 4, !tbaa !40
  %41 = icmp sle i32 %40, 0
  br i1 %41, label %42, label %43

42:                                               ; preds = %39
  store i32 0, ptr %7, align 4
  store i32 1, ptr %15, align 4
  br label %67

43:                                               ; preds = %39
  %44 = load i32, ptr %13, align 4, !tbaa !40
  %45 = load ptr, ptr %14, align 8, !tbaa !36
  %46 = getelementptr inbounds nuw %struct.SliceThreadContext, ptr %45, i32 0, i32 6
  store i32 %44, ptr %46, align 8, !tbaa !47
  %47 = load ptr, ptr %10, align 8, !tbaa !38
  %48 = load ptr, ptr %14, align 8, !tbaa !36
  %49 = getelementptr inbounds nuw %struct.SliceThreadContext, ptr %48, i32 0, i32 4
  store ptr %47, ptr %49, align 8, !tbaa !48
  %50 = load ptr, ptr %9, align 8, !tbaa !38
  %51 = load ptr, ptr %14, align 8, !tbaa !36
  %52 = getelementptr inbounds nuw %struct.SliceThreadContext, ptr %51, i32 0, i32 1
  store ptr %50, ptr %52, align 8, !tbaa !49
  %53 = load ptr, ptr %11, align 8, !tbaa !39
  %54 = load ptr, ptr %14, align 8, !tbaa !36
  %55 = getelementptr inbounds nuw %struct.SliceThreadContext, ptr %54, i32 0, i32 5
  store ptr %53, ptr %55, align 8, !tbaa !50
  %56 = load ptr, ptr %14, align 8, !tbaa !36
  %57 = getelementptr inbounds nuw %struct.SliceThreadContext, ptr %56, i32 0, i32 0
  %58 = load ptr, ptr %57, align 8, !tbaa !51
  %59 = load i32, ptr %12, align 4, !tbaa !40
  %60 = load ptr, ptr %14, align 8, !tbaa !36
  %61 = getelementptr inbounds nuw %struct.SliceThreadContext, ptr %60, i32 0, i32 3
  %62 = load ptr, ptr %61, align 8, !tbaa !44
  %63 = icmp ne ptr %62, null
  %64 = xor i1 %63, true
  %65 = xor i1 %64, true
  %66 = zext i1 %65 to i32
  call void @avpriv_slicethread_execute(ptr noundef %58, i32 noundef %59, i32 noundef %66)
  store i32 0, ptr %7, align 4
  store i32 1, ptr %15, align 4
  br label %67

67:                                               ; preds = %43, %42, %31
  call void @llvm.lifetime.end.p0(i64 8, ptr %14) #5
  %68 = load i32, ptr %7, align 4
  ret i32 %68
}