; Function Attrs: nounwind uwtable
define internal i32 @thread_execute(ptr noundef %0, ptr noundef %1, ptr noundef %2, ptr noundef %3, i32 noundef %4, i32 noundef %5) #2 {
  %7 = getelementptr inbounds nuw i8, ptr %0, i64 40
  %8 = load ptr, ptr %7, align 8, !tbaa !4
  %9 = getelementptr inbounds nuw i8, ptr %8, i64 32
  %10 = load ptr, ptr %9, align 8, !tbaa !27
  %11 = getelementptr inbounds nuw i8, ptr %0, i64 664
  %12 = load i32, ptr %11, align 8, !tbaa !38
  %13 = and i32 %12, 2
  %.not = icmp eq i32 %13, 0
  br i1 %.not, label %18, label %14

14:                                               ; preds = %6
  %15 = getelementptr inbounds nuw i8, ptr %0, i64 656
  %16 = load i32, ptr %15, align 8, !tbaa !39
  %17 = icmp slt i32 %16, 2
  br i1 %17, label %18, label %20

18:                                               ; preds = %14, %6
  %19 = tail call i32 @avcodec_default_execute(ptr noundef nonnull %0, ptr noundef %1, ptr noundef %2, ptr noundef %3, i32 noundef %4, i32 noundef %5) #4
  br label %32

20:                                               ; preds = %14
  %21 = icmp slt i32 %4, 1
  br i1 %21, label %32, label %22

22:                                               ; preds = %20
  %23 = getelementptr inbounds nuw i8, ptr %10, i64 48
  store i32 %5, ptr %23, align 8, !tbaa !40
  %24 = getelementptr inbounds nuw i8, ptr %10, i64 32
  store ptr %2, ptr %24, align 8, !tbaa !41
  %25 = getelementptr inbounds nuw i8, ptr %10, i64 8
  store ptr %1, ptr %25, align 8, !tbaa !42
  %26 = getelementptr inbounds nuw i8, ptr %10, i64 40
  store ptr %3, ptr %26, align 8, !tbaa !43
  %27 = load ptr, ptr %10, align 8, !tbaa !44
  %28 = getelementptr inbounds nuw i8, ptr %10, i64 24
  %29 = load ptr, ptr %28, align 8, !tbaa !37
  %30 = icmp ne ptr %29, null
  %31 = zext i1 %30 to i32
  tail call void @avpriv_slicethread_execute(ptr noundef %27, i32 noundef %4, i32 noundef %31) #4
  br label %32

32:                                               ; preds = %20, %22, %18
  %.0 = phi i32 [ %19, %18 ], [ 0, %22 ], [ 0, %20 ]
  ret i32 %.0
}